target datalayout = "e-m:e-p270:32:32-p271:32:32-p272:64:64-i64:64-i128:128-f80:128-n8:16:32:64-S128"
target triple = "x86_64-unknown-linux-gnu"

%class.svector.15 = type { %class.vector.16 }
%class.vector.16 = type { ptr }
%class.svector.1 = type { %class.vector.2 }
%class.vector.2 = type { ptr }
%class.svector.190 = type { %class.vector.191 }
%class.vector.191 = type { ptr }
%class.obj_ref = type { ptr, ptr }
%"struct.user_solver::solver::prop_info" = type <{ %class.svector.1, %class.obj_ref, %class.svector.190, %class.svector.15, i32, [4 x i8] }>

; Function Attrs: mustprogress nounwind uwtable
define linkonce_odr hidden noundef ptr @_ZNK6vectorIN3sat7literalELb0EjE4dataEv(ptr noundef nonnull align 8 dereferenceable(8) %this) #4 comdat align 2 {
entry:
  %this.addr = alloca ptr, align 8
  store ptr %this, ptr %this.addr, align 8
  %this1 = load ptr, ptr %this.addr, align 8
  %m_data = getelementptr inbounds %class.vector.16, ptr %this1, i32 0, i32 0
  %0 = load ptr, ptr %m_data, align 8
  ret ptr %0
}

; Function Attrs: mustprogress nounwind uwtable
define linkonce_odr hidden noundef i32 @_ZNK6vectorIN3sat7literalELb0EjE4sizeEv(ptr noundef nonnull align 8 dereferenceable(8) %this) #4 comdat align 2 {
entry:
  %retval = alloca i32, align 4
  %this.addr = alloca ptr, align 8
  store ptr %this, ptr %this.addr, align 8
  %this1 = load ptr, ptr %this.addr, align 8
  %m_data = getelementptr inbounds %class.vector.16, ptr %this1, i32 0, i32 0
  %0 = load ptr, ptr %m_data, align 8
  %cmp = icmp eq ptr %0, null
  br i1 %cmp, label %if.then, label %if.end

if.then:                                          ; preds = %entry
  store i32 0, ptr %retval, align 4
  br label %return

if.end:                                           ; preds = %entry
  %m_data2 = getelementptr inbounds %class.vector.16, ptr %this1, i32 0, i32 0
  %1 = load ptr, ptr %m_data2, align 8
  %arrayidx = getelementptr inbounds i32, ptr %1, i64 -1
  %2 = load i32, ptr %arrayidx, align 4
  store i32 %2, ptr %retval, align 4
  br label %return

return:                                           ; preds = %if.end, %if.then
  %3 = load i32, ptr %retval, align 4
  ret i32 %3
}

; Function Attrs: mustprogress nounwind uwtable
define linkonce_odr hidden noundef ptr @_ZNK7obj_refI4expr11ast_managerEcvPS0_Ev(ptr noundef nonnull align 8 dereferenceable(16) %this) #4 comdat align 2 {
entry:
  %this.addr = alloca ptr, align 8
  store ptr %this, ptr %this.addr, align 8
  %this1 = load ptr, ptr %this.addr, align 8
  %m_obj = getelementptr inbounds %class.obj_ref, ptr %this1, i32 0, i32 0
  %0 = load ptr, ptr %m_obj, align 8
  ret ptr %0
}

; Function Attrs: mustprogress uwtable
define hidden void @_ZN11user_solver6solver19propagate_new_fixedERKNS0_9prop_infoE(ptr noundef nonnull align 8 dereferenceable(492) %this, ptr noundef nonnull align 8 dereferenceable(44) %prop) #5 align 2 {
entry:
  %this.addr = alloca ptr, align 8
  %prop.addr = alloca ptr, align 8
  store ptr %this, ptr %this.addr, align 8
  store ptr %prop, ptr %prop.addr, align 8
  %this1 = load ptr, ptr %this.addr, align 8
  %0 = load ptr, ptr %prop.addr, align 8
  %m_var = getelementptr inbounds %"struct.user_solver::solver::prop_info", ptr %0, i32 0, i32 4
  %1 = load i32, ptr %m_var, align 8
  %2 = load ptr, ptr %prop.addr, align 8
  %m_conseq = getelementptr inbounds %"struct.user_solver::solver::prop_info", ptr %2, i32 0, i32 1
  %call = call noundef ptr @_ZNK7obj_refI4expr11ast_managerEcvPS0_Ev(ptr noundef nonnull align 8 dereferenceable(16) %m_conseq)
  %3 = load ptr, ptr %prop.addr, align 8
  %m_lits = getelementptr inbounds %"struct.user_solver::solver::prop_info", ptr %3, i32 0, i32 3
  %call2 = call noundef i32 @_ZNK6vectorIN3sat7literalELb0EjE4sizeEv(ptr noundef nonnull align 8 dereferenceable(8) %m_lits)
  %4 = load ptr, ptr %prop.addr, align 8
  %m_lits3 = getelementptr inbounds %"struct.user_solver::solver::prop_info", ptr %4, i32 0, i32 3
  %call4 = call noundef ptr @_ZNK6vectorIN3sat7literalELb0EjE4dataEv(ptr noundef nonnull align 8 dereferenceable(8) %m_lits3)
  call void @_ZN11user_solver6solver12new_fixed_ehEiP4exprjPKN3sat7literalE(ptr noundef nonnull align 8 dereferenceable(492) %this1, i32 noundef %1, ptr noundef %call, i32 noundef %call2, ptr noundef %call4)
  ret void
}