; Function Attrs: mustprogress uwtable
define hidden void @_ZN11user_solver6solver19propagate_new_fixedERKNS0_9prop_infoE(ptr noundef nonnull align 8 dereferenceable(492) %this, ptr nocapture noundef nonnull readonly align 8 dereferenceable(44) %prop) local_unnamed_addr #3 align 2 {
entry:
  %m_var = getelementptr inbounds i8, ptr %prop, i64 40
  %0 = load i32, ptr %m_var, align 8
  %m_conseq = getelementptr inbounds i8, ptr %prop, i64 8
  %1 = load ptr, ptr %m_conseq, align 8
  %m_lits = getelementptr inbounds i8, ptr %prop, i64 32
  %2 = load ptr, ptr %m_lits, align 8
  %cmp.i = icmp eq ptr %2, null
  br i1 %cmp.i, label %_ZNK6vectorIN3sat7literalELb0EjE4sizeEv.exit, label %if.end.i

if.end.i:                                         ; preds = %entry
  %arrayidx.i = getelementptr inbounds i8, ptr %2, i64 -4
  %3 = load i32, ptr %arrayidx.i, align 4
  br label %_ZNK6vectorIN3sat7literalELb0EjE4sizeEv.exit

_ZNK6vectorIN3sat7literalELb0EjE4sizeEv.exit:     ; preds = %entry, %if.end.i
  %retval.0.i = phi i32 [ %3, %if.end.i ], [ 0, %entry ]
  tail call void @_ZN11user_solver6solver12new_fixed_ehEiP4exprjPKN3sat7literalE(ptr noundef nonnull align 8 dereferenceable(492) %this, i32 noundef %0, ptr noundef %1, i32 noundef %retval.0.i, ptr noundef %2)
  ret void
}